target datalayout = "e-m:e-p270:32:32-p271:32:32-p272:64:64-i64:64-i128:128-f80:128-n8:16:32:64-S128"
target triple = "x86_64-pc-linux-gnu"

%struct.AVCodecDescriptor = type { i32, i32, ptr, ptr, i32, ptr, ptr }
%struct.AVCodec = type { ptr, ptr, i32, i32, i32, i8, ptr, ptr, ptr, ptr, ptr, ptr, ptr, ptr }

@.str.95 = private unnamed_addr constant [26 x i8] c"No codec name specified.\0A\00", align 1
@.str.96 = private unnamed_addr constant [135 x i8] c"Codec '%s' is known to FFmpeg, but no %s for it are available. FFmpeg might need to be recompiled with additional external libraries.\0A\00", align 1
@.str.97 = private unnamed_addr constant [9 x i8] c"encoders\00", align 1
@.str.98 = private unnamed_addr constant [9 x i8] c"decoders\00", align 1
@.str.99 = private unnamed_addr constant [41 x i8] c"Codec '%s' is not recognized by FFmpeg.\0A\00", align 1

; Function Attrs: nounwind uwtable
define internal ptr @next_codec_for_id(i32 noundef %0, ptr noundef %1, i32 noundef %2) #0 {
  %4 = alloca ptr, align 8
  %5 = alloca i32, align 4
  %6 = alloca ptr, align 8
  %7 = alloca i32, align 4
  %8 = alloca ptr, align 8
  %9 = alloca i32, align 4
  store i32 %0, ptr %5, align 4, !tbaa !10
  store ptr %1, ptr %6, align 8, !tbaa !89
  store i32 %2, ptr %7, align 4, !tbaa !10
  call void @llvm.lifetime.start.p0(i64 8, ptr %8) #11
  br label %10

10:                                               ; preds = %33, %3
  %11 = load ptr, ptr %6, align 8, !tbaa !89
  %12 = call ptr @av_codec_iterate(ptr noundef %11)
  store ptr %12, ptr %8, align 8, !tbaa !22
  %13 = icmp ne ptr %12, null
  br i1 %13, label %14, label %34

14:                                               ; preds = %10
  %15 = load ptr, ptr %8, align 8, !tbaa !22
  %16 = getelementptr inbounds nuw %struct.AVCodec, ptr %15, i32 0, i32 3
  %17 = load i32, ptr %16, align 4, !tbaa !90
  %18 = load i32, ptr %5, align 4, !tbaa !10
  %19 = icmp eq i32 %17, %18
  br i1 %19, label %20, label %33

20:                                               ; preds = %14
  %21 = load i32, ptr %7, align 4, !tbaa !10
  %22 = icmp ne i32 %21, 0
  br i1 %22, label %23, label %27

23:                                               ; preds = %20
  %24 = load ptr, ptr %8, align 8, !tbaa !22
  %25 = call i32 @av_codec_is_encoder(ptr noundef %24)
  %26 = icmp ne i32 %25, 0
  br i1 %26, label %31, label %33

27:                                               ; preds = %20
  %28 = load ptr, ptr %8, align 8, !tbaa !22
  %29 = call i32 @av_codec_is_decoder(ptr noundef %28)
  %30 = icmp ne i32 %29, 0
  br i1 %30, label %31, label %33

31:                                               ; preds = %27, %23
  %32 = load ptr, ptr %8, align 8, !tbaa !22
  store ptr %32, ptr %4, align 8
  store i32 1, ptr %9, align 4
  br label %35

33:                                               ; preds = %27, %23, %14
  br label %10, !llvm.loop !91

34:                                               ; preds = %10
  store ptr null, ptr %4, align 8
  store i32 1, ptr %9, align 4
  br label %35

35:                                               ; preds = %34, %31
  call void @llvm.lifetime.end.p0(i64 8, ptr %8) #11
  %36 = load ptr, ptr %4, align 8
  ret ptr %36
}

; Function Attrs: nounwind uwtable
define internal void @show_help_codec(ptr noundef %0, i32 noundef %1) #0 {
  %3 = alloca ptr, align 8
  %4 = alloca i32, align 4
  %5 = alloca ptr, align 8
  %6 = alloca ptr, align 8
  %7 = alloca i32, align 4
  %8 = alloca ptr, align 8
  %9 = alloca i32, align 4
  store ptr %0, ptr %3, align 8, !tbaa !8
  store i32 %1, ptr %4, align 4, !tbaa !10
  call void @llvm.lifetime.start.p0(i64 8, ptr %5) #11
  call void @llvm.lifetime.start.p0(i64 8, ptr %6) #11
  %10 = load ptr, ptr %3, align 8, !tbaa !8
  %11 = icmp ne ptr %10, null
  br i1 %11, label %13, label %12

12:                                               ; preds = %2
  call void (ptr, i32, ptr, ...) @av_log(ptr noundef null, i32 noundef 16, ptr noundef @.str.95)
  store i32 1, ptr %7, align 4
  br label %55

13:                                               ; preds = %2
  %14 = load i32, ptr %4, align 4, !tbaa !10
  %15 = icmp ne i32 %14, 0
  br i1 %15, label %16, label %19

16:                                               ; preds = %13
  %17 = load ptr, ptr %3, align 8, !tbaa !8
  %18 = call ptr @avcodec_find_encoder_by_name(ptr noundef %17)
  br label %22

19:                                               ; preds = %13
  %20 = load ptr, ptr %3, align 8, !tbaa !8
  %21 = call ptr @avcodec_find_decoder_by_name(ptr noundef %20)
  br label %22

22:                                               ; preds = %19, %16
  %23 = phi ptr [ %18, %16 ], [ %21, %19 ]
  store ptr %23, ptr %6, align 8, !tbaa !22
  %24 = load ptr, ptr %6, align 8, !tbaa !22
  %25 = icmp ne ptr %24, null
  br i1 %25, label %26, label %28

26:                                               ; preds = %22
  %27 = load ptr, ptr %6, align 8, !tbaa !22
  call void @print_codec(ptr noundef %27)
  br label %54

28:                                               ; preds = %22
  %29 = load ptr, ptr %3, align 8, !tbaa !8
  %30 = call ptr @avcodec_descriptor_get_by_name(ptr noundef %29)
  store ptr %30, ptr %5, align 8, !tbaa !24
  %31 = icmp ne ptr %30, null
  br i1 %31, label %32, label %51

32:                                               ; preds = %28
  call void @llvm.lifetime.start.p0(i64 8, ptr %8) #11
  store ptr null, ptr %8, align 8, !tbaa !4
  call void @llvm.lifetime.start.p0(i64 4, ptr %9) #11
  store i32 0, ptr %9, align 4, !tbaa !10
  br label %33

33:                                               ; preds = %40, %32
  %34 = load ptr, ptr %5, align 8, !tbaa !24
  %35 = getelementptr inbounds nuw %struct.AVCodecDescriptor, ptr %34, i32 0, i32 0
  %36 = load i32, ptr %35, align 8, !tbaa !26
  %37 = load i32, ptr %4, align 4, !tbaa !10
  %38 = call ptr @next_codec_for_id(i32 noundef %36, ptr noundef %8, i32 noundef %37)
  store ptr %38, ptr %6, align 8, !tbaa !22
  %39 = icmp ne ptr %38, null
  br i1 %39, label %40, label %42

40:                                               ; preds = %33
  store i32 1, ptr %9, align 4, !tbaa !10
  %41 = load ptr, ptr %6, align 8, !tbaa !22
  call void @print_codec(ptr noundef %41)
  br label %33, !llvm.loop !29

42:                                               ; preds = %33
  %43 = load i32, ptr %9, align 4, !tbaa !10
  %44 = icmp ne i32 %43, 0
  br i1 %44, label %50, label %45

45:                                               ; preds = %42
  %46 = load ptr, ptr %3, align 8, !tbaa !8
  %47 = load i32, ptr %4, align 4, !tbaa !10
  %48 = icmp ne i32 %47, 0
  %49 = select i1 %48, ptr @.str.97, ptr @.str.98
  call void (ptr, i32, ptr, ...) @av_log(ptr noundef null, i32 noundef 16, ptr noundef @.str.96, ptr noundef %46, ptr noundef %49)
  br label %50

50:                                               ; preds = %45, %42
  call void @llvm.lifetime.end.p0(i64 4, ptr %9) #11
  call void @llvm.lifetime.end.p0(i64 8, ptr %8) #11
  br label %53

51:                                               ; preds = %28
  %52 = load ptr, ptr %3, align 8, !tbaa !8
  call void (ptr, i32, ptr, ...) @av_log(ptr noundef null, i32 noundef 16, ptr noundef @.str.99, ptr noundef %52)
  br label %53

53:                                               ; preds = %51, %50
  br label %54

54:                                               ; preds = %53, %26
  store i32 0, ptr %7, align 4
  br label %55

55:                                               ; preds = %54, %12
  call void @llvm.lifetime.end.p0(i64 8, ptr %6) #11
  call void @llvm.lifetime.end.p0(i64 8, ptr %5) #11
  %56 = load i32, ptr %7, align 4
  switch i32 %56, label %58 [
    i32 0, label %57
    i32 1, label %57
  ]

57:                                               ; preds = %55, %55
  ret void

58:                                               ; preds = %55
  unreachable
}