; Function Attrs: nounwind uwtable
define internal fastcc void @show_help_codec(ptr noundef %0, i32 noundef range(i32 0, 2) %1) unnamed_addr #2 {
  %3 = alloca ptr, align 8
  %.not = icmp eq ptr %0, null
  br i1 %.not, label %4, label %5

4:                                                ; preds = %2
  tail call void (ptr, i32, ptr, ...) @av_log(ptr noundef null, i32 noundef 16, ptr noundef nonnull @.str.95) #17
  br label %44

5:                                                ; preds = %2
  %.not17 = icmp eq i32 %1, 0
  br i1 %.not17, label %8, label %6

6:                                                ; preds = %5
  %7 = tail call ptr @avcodec_find_encoder_by_name(ptr noundef nonnull %0) #17
  br label %10

8:                                                ; preds = %5
  %9 = tail call ptr @avcodec_find_decoder_by_name(ptr noundef nonnull %0) #17
  br label %10

10:                                               ; preds = %8, %6
  %11 = phi ptr [ %7, %6 ], [ %9, %8 ]
  %.not18 = icmp eq ptr %11, null
  br i1 %.not18, label %13, label %12

12:                                               ; preds = %10
  tail call fastcc void @print_codec(ptr noundef %11)
  br label %44

13:                                               ; preds = %10
  %14 = tail call ptr @avcodec_descriptor_get_by_name(ptr noundef nonnull %0) #17
  %.not19 = icmp eq ptr %14, null
  br i1 %.not19, label %43, label %15

15:                                               ; preds = %13
  call void @llvm.lifetime.start.p0(i64 8, ptr nonnull %3) #17
  store ptr null, ptr %3, align 8, !tbaa !37
  %16 = load i32, ptr %14, align 8, !tbaa !38
  %17 = call ptr @av_codec_iterate(ptr noundef nonnull %3) #17
  %.not11.i33 = icmp eq ptr %17, null
  br i1 %.not11.i33, label %.critedge, label %.lr.ph.i.lr.ph

.lr.ph.i.lr.ph:                                   ; preds = %15
  br i1 %.not17, label %.lr.ph.i.us, label %.lr.ph.i

.lr.ph.i.us:                                      ; preds = %.lr.ph.i.lr.ph, %next_codec_for_id.exit.loopexit.us
  %18 = phi ptr [ %29, %next_codec_for_id.exit.loopexit.us ], [ %17, %.lr.ph.i.lr.ph ]
  %19 = phi i32 [ %28, %next_codec_for_id.exit.loopexit.us ], [ %16, %.lr.ph.i.lr.ph ]
  %.not2134.us = phi i1 [ false, %next_codec_for_id.exit.loopexit.us ], [ true, %.lr.ph.i.lr.ph ]
  br label %.lr.ph.split.us.i.us

.lr.ph.split.us.i.us:                             ; preds = %.lr.ph.i.us, %26
  %20 = phi ptr [ %27, %26 ], [ %18, %.lr.ph.i.us ]
  %21 = getelementptr inbounds nuw i8, ptr %20, i64 20
  %22 = load i32, ptr %21, align 4, !tbaa !39
  %23 = icmp eq i32 %22, %19
  br i1 %23, label %24, label %26

24:                                               ; preds = %.lr.ph.split.us.i.us
  %25 = call i32 @av_codec_is_decoder(ptr noundef nonnull %20) #17
  %.not9.us.i.us = icmp eq i32 %25, 0
  br i1 %.not9.us.i.us, label %26, label %next_codec_for_id.exit.loopexit.us

26:                                               ; preds = %24, %.lr.ph.split.us.i.us
  %27 = call ptr @av_codec_iterate(ptr noundef nonnull %3) #17
  %.not.us.i.us = icmp eq ptr %27, null
  br i1 %.not.us.i.us, label %.loopexit, label %.lr.ph.split.us.i.us, !llvm.loop !44

next_codec_for_id.exit.loopexit.us:               ; preds = %24
  call fastcc void @print_codec(ptr noundef %20)
  %28 = load i32, ptr %14, align 8, !tbaa !38
  %29 = call ptr @av_codec_iterate(ptr noundef nonnull %3) #17
  %.not11.i.us = icmp eq ptr %29, null
  br i1 %.not11.i.us, label %.critedge36, label %.lr.ph.i.us, !llvm.loop !45

.lr.ph.i:                                         ; preds = %.lr.ph.i.lr.ph, %next_codec_for_id.exit.loopexit24
  %30 = phi ptr [ %41, %next_codec_for_id.exit.loopexit24 ], [ %17, %.lr.ph.i.lr.ph ]
  %31 = phi i32 [ %40, %next_codec_for_id.exit.loopexit24 ], [ %16, %.lr.ph.i.lr.ph ]
  %.not2134 = phi i1 [ false, %next_codec_for_id.exit.loopexit24 ], [ true, %.lr.ph.i.lr.ph ]
  br label %.lr.ph.split.i

.lr.ph.split.i:                                   ; preds = %.lr.ph.i, %38
  %32 = phi ptr [ %39, %38 ], [ %30, %.lr.ph.i ]
  %33 = getelementptr inbounds nuw i8, ptr %32, i64 20
  %34 = load i32, ptr %33, align 4, !tbaa !39
  %35 = icmp eq i32 %34, %31
  br i1 %35, label %36, label %38

36:                                               ; preds = %.lr.ph.split.i
  %37 = call i32 @av_codec_is_encoder(ptr noundef nonnull %32) #17
  %.not10.i = icmp eq i32 %37, 0
  br i1 %.not10.i, label %38, label %next_codec_for_id.exit.loopexit24

38:                                               ; preds = %36, %.lr.ph.split.i
  %39 = call ptr @av_codec_iterate(ptr noundef nonnull %3) #17
  %.not.i = icmp eq ptr %39, null
  br i1 %.not.i, label %.loopexit, label %.lr.ph.split.i, !llvm.loop !44

next_codec_for_id.exit.loopexit24:                ; preds = %36
  call fastcc void @print_codec(ptr noundef %32)
  %40 = load i32, ptr %14, align 8, !tbaa !38
  %41 = call ptr @av_codec_iterate(ptr noundef nonnull %3) #17
  %.not11.i = icmp eq ptr %41, null
  br i1 %.not11.i, label %.critedge36, label %.lr.ph.i, !llvm.loop !45

.loopexit:                                        ; preds = %38, %26
  %.not2132 = phi i1 [ %.not2134.us, %26 ], [ %.not2134, %38 ]
  br i1 %.not2132, label %.critedge, label %.critedge36

.critedge:                                        ; preds = %15, %.loopexit
  %42 = select i1 %.not17, ptr @.str.98, ptr @.str.97
  call void (ptr, i32, ptr, ...) @av_log(ptr noundef null, i32 noundef 16, ptr noundef nonnull @.str.96, ptr noundef nonnull %0, ptr noundef nonnull %42) #17
  br label %.critedge36

.critedge36:                                      ; preds = %next_codec_for_id.exit.loopexit24, %next_codec_for_id.exit.loopexit.us, %.critedge, %.loopexit
  call void @llvm.lifetime.end.p0(i64 8, ptr nonnull %3) #17
  br label %44

43:                                               ; preds = %13
  tail call void (ptr, i32, ptr, ...) @av_log(ptr noundef null, i32 noundef 16, ptr noundef nonnull @.str.99, ptr noundef nonnull %0) #17
  br label %44

44:                                               ; preds = %12, %43, %.critedge36, %4
  ret void
}